; Function Attrs: mustprogress uwtable
define noundef nonnull align 8 dereferenceable(96) ptr @_ZN7rocksdb10WriteBatchaSERKS0_(ptr noundef nonnull returned align 8 dereferenceable(96) %this, ptr noundef nonnull align 8 dereferenceable(96) %src) local_unnamed_addr #2 align 2 {
entry:
  %cmp.not = icmp eq ptr %src, %this
  br i1 %cmp.not, label %if.end, label %if.then

if.then:                                          ; preds = %entry
  %vtable = load ptr, ptr %this, align 8
  %0 = load ptr, ptr %vtable, align 8
  tail call void %0(ptr noundef nonnull align 8 dereferenceable(96) %this) #24
  tail call void @_ZN7rocksdb10WriteBatchC1ERKS0_(ptr noundef nonnull align 8 dereferenceable(96) %this, ptr noundef nonnull align 8 dereferenceable(96) %src)
  br label %if.end

if.end:                                           ; preds = %if.then, %entry
  ret ptr %this
}